(dp0
S'qq'
p1
(dp2
S'son'
p3
(lp4
S'aa,ss'
p5
asS'father'
p6
S'4'
p7
sS'mother'
p8
S'3'
p9
ssS'ww'
p10
(dp11
g3
(lp12
S'zz'
p13
asg6
S'66'
p14
sg8
S'55'
p15
ssS'tom'
p16
(dp17
g3
(lp18
S'qq,ww,ee'
p19
asg6
S'2'
p20
sg8
S'1'
p21
ss.